target datalayout = "e-m:e-p270:32:32-p271:32:32-p272:64:64-i64:64-i128:128-f80:128-n8:16:32:64-S128"
target triple = "x86_64-pc-linux-gnu"

%struct.ident_t = type { i32, i32, i32, i32, ptr }
%struct.fft5d_plan_t = type { ptr, ptr, ptr, ptr, [3 x ptr], ptr, [2 x ptr], [3 x i32], [3 x i32], [3 x i32], [3 x i32], [3 x i32], [3 x i32], [3 x i32], [3 x i32], [3 x ptr], [3 x ptr], [3 x ptr], [3 x ptr], [3 x i32], [3 x i32], [2 x i32], i32, i32, i32, i32, [2 x i32], i32, i32 }

@_ZTISt9exception = external constant ptr
@1 = private unnamed_addr constant %struct.ident_t { i32 0, i32 2, i32 0, i32 22, ptr @0 }, align 8

; Function Attrs: alwaysinline norecurse nounwind uwtable
define internal void @_Z13fft5d_plan_3diiiPP10tmpi_comm_iPP9t_complexS4_S4_S4_iN3gmx13PinningPolicyE.omp_outlined(ptr noalias noundef %0, ptr noalias noundef %1, ptr noundef nonnull align 4 dereferenceable(4) %2, ptr noundef nonnull align 4 dereferenceable(12) %3, ptr noundef nonnull align 4 dereferenceable(4) %4, ptr noundef nonnull align 4 dereferenceable(12) %5, ptr noundef nonnull align 4 dereferenceable(4) %6, ptr noundef nonnull align 8 dereferenceable(8) %7, ptr noundef nonnull align 4 dereferenceable(12) %8, ptr noundef nonnull align 4 dereferenceable(12) %9) #13 personality ptr @__gxx_personality_v0 {
  %11 = alloca ptr, align 8
  %12 = alloca ptr, align 8
  %13 = alloca ptr, align 8
  %14 = alloca ptr, align 8
  %15 = alloca ptr, align 8
  %16 = alloca ptr, align 8
  %17 = alloca ptr, align 8
  %18 = alloca ptr, align 8
  %19 = alloca ptr, align 8
  %20 = alloca ptr, align 8
  %21 = alloca i32, align 4
  %22 = alloca i32, align 4
  %23 = alloca i32, align 4
  %24 = alloca i32, align 4
  %25 = alloca i32, align 4
  %26 = alloca i32, align 4
  %27 = alloca i32, align 4
  %28 = alloca i32, align 4
  %29 = alloca i32, align 4
  %30 = alloca i32, align 4
  %31 = alloca ptr, align 8
  %32 = alloca i32, align 4
  %33 = alloca ptr, align 8
  store ptr %0, ptr %11, align 8, !tbaa !16
  store ptr %1, ptr %12, align 8, !tbaa !16
  store ptr %2, ptr %13, align 8, !tbaa !16
  store ptr %3, ptr %14, align 8, !tbaa !16
  store ptr %4, ptr %15, align 8, !tbaa !16
  store ptr %5, ptr %16, align 8, !tbaa !16
  store ptr %6, ptr %17, align 8, !tbaa !16
  store ptr %7, ptr %18, align 8, !tbaa !66
  store ptr %8, ptr %19, align 8, !tbaa !16
  store ptr %9, ptr %20, align 8, !tbaa !16
  %34 = load ptr, ptr %13, align 8, !tbaa !16
  %35 = load ptr, ptr %14, align 8, !tbaa !16
  %36 = load ptr, ptr %15, align 8, !tbaa !16
  %37 = load ptr, ptr %16, align 8, !tbaa !16
  %38 = load ptr, ptr %17, align 8, !tbaa !16
  %39 = load ptr, ptr %18, align 8, !tbaa !66
  %40 = load ptr, ptr %19, align 8, !tbaa !16
  %41 = load ptr, ptr %20, align 8, !tbaa !16
  call void @llvm.lifetime.start.p0(i64 4, ptr %21) #14
  call void @llvm.lifetime.start.p0(i64 4, ptr %22) #14
  %42 = load i32, ptr %34, align 4, !tbaa !4
  store i32 %42, ptr %22, align 4, !tbaa !4
  call void @llvm.lifetime.start.p0(i64 4, ptr %23) #14
  %43 = load i32, ptr %22, align 4, !tbaa !4
  %44 = sub nsw i32 %43, 0
  %45 = sdiv i32 %44, 1
  %46 = sub nsw i32 %45, 1
  store i32 %46, ptr %23, align 4, !tbaa !4
  call void @llvm.lifetime.start.p0(i64 4, ptr %24) #14
  store i32 0, ptr %24, align 4, !tbaa !4
  call void @llvm.lifetime.end.p0(i64 4, ptr %24) #14
  %47 = load i32, ptr %22, align 4, !tbaa !4
  %48 = icmp slt i32 0, %47
  br i1 %48, label %49, label %186

49:                                               ; preds = %10
  call void @llvm.lifetime.start.p0(i64 4, ptr %25) #14
  store i32 0, ptr %25, align 4, !tbaa !4
  call void @llvm.lifetime.start.p0(i64 4, ptr %26) #14
  %50 = load i32, ptr %23, align 4, !tbaa !4
  store i32 %50, ptr %26, align 4, !tbaa !4
  call void @llvm.lifetime.start.p0(i64 4, ptr %27) #14
  store i32 1, ptr %27, align 4, !tbaa !4
  call void @llvm.lifetime.start.p0(i64 4, ptr %28) #14
  store i32 0, ptr %28, align 4, !tbaa !4
  call void @llvm.lifetime.start.p0(i64 4, ptr %29) #14
  %51 = load i32, ptr %23, align 4, !tbaa !4
  %52 = load ptr, ptr %11, align 8
  %53 = load i32, ptr %52, align 4, !tbaa !4
  call void @__kmpc_dispatch_init_4(ptr @1, i32 %53, i32 66, i32 0, i32 %51, i32 1, i32 1)
  br label %54

54:                                               ; preds = %182, %49
  %55 = load ptr, ptr %11, align 8
  %56 = load i32, ptr %55, align 4, !tbaa !4
  %57 = call i32 @__kmpc_dispatch_next_4(ptr @1, i32 %56, ptr %28, ptr %25, ptr %26, ptr %27)
  %58 = icmp ne i32 %57, 0
  br i1 %58, label %60, label %59

59:                                               ; preds = %54
  br label %183

60:                                               ; preds = %54
  %61 = load i32, ptr %25, align 4, !tbaa !4
  store i32 %61, ptr %21, align 4, !tbaa !4
  br label %62

62:                                               ; preds = %176, %60
  %63 = load i32, ptr %21, align 4, !tbaa !4
  %64 = load i32, ptr %26, align 4, !tbaa !4
  %65 = icmp sle i32 %63, %64
  br i1 %65, label %67, label %66

66:                                               ; preds = %62
  br label %181

67:                                               ; preds = %62
  %68 = load i32, ptr %21, align 4, !tbaa !4
  %69 = mul nsw i32 %68, 1
  %70 = add nsw i32 0, %69
  store i32 %70, ptr %29, align 4, !tbaa !4
  %71 = load ptr, ptr %11, align 8
  %72 = load i32, ptr %71, align 4, !tbaa !4
  call void @__kmpc_ordered(ptr @1, i32 %72)
  call void @llvm.lifetime.start.p0(i64 4, ptr %30) #14
  %73 = load i32, ptr %29, align 4, !tbaa !4
  %74 = add nsw i32 %73, 1
  %75 = load i32, ptr %36, align 4, !tbaa !4
  %76 = sext i32 %75 to i64
  %77 = getelementptr inbounds [3 x i32], ptr %35, i64 0, i64 %76
  %78 = load i32, ptr %77, align 4, !tbaa !4
  %79 = mul nsw i32 %74, %78
  %80 = load i32, ptr %36, align 4, !tbaa !4
  %81 = sext i32 %80 to i64
  %82 = getelementptr inbounds [3 x i32], ptr %37, i64 0, i64 %81
  %83 = load i32, ptr %82, align 4, !tbaa !4
  %84 = mul nsw i32 %79, %83
  %85 = load i32, ptr %34, align 4, !tbaa !4
  %86 = sdiv i32 %84, %85
  %87 = load i32, ptr %29, align 4, !tbaa !4
  %88 = load i32, ptr %36, align 4, !tbaa !4
  %89 = sext i32 %88 to i64
  %90 = getelementptr inbounds [3 x i32], ptr %35, i64 0, i64 %89
  %91 = load i32, ptr %90, align 4, !tbaa !4
  %92 = mul nsw i32 %87, %91
  %93 = load i32, ptr %36, align 4, !tbaa !4
  %94 = sext i32 %93 to i64
  %95 = getelementptr inbounds [3 x i32], ptr %37, i64 0, i64 %94
  %96 = load i32, ptr %95, align 4, !tbaa !4
  %97 = mul nsw i32 %92, %96
  %98 = load i32, ptr %34, align 4, !tbaa !4
  %99 = sdiv i32 %97, %98
  %100 = sub nsw i32 %86, %99
  store i32 %100, ptr %30, align 4, !tbaa !4
  %101 = load i32, ptr %38, align 4, !tbaa !4
  %102 = and i32 %101, 4
  %103 = icmp ne i32 %102, 0
  br i1 %103, label %104, label %152

104:                                              ; preds = %67
  %105 = load i32, ptr %38, align 4, !tbaa !4
  %106 = and i32 %105, 2
  %107 = icmp ne i32 %106, 0
  br i1 %107, label %111, label %108

108:                                              ; preds = %104
  %109 = load i32, ptr %36, align 4, !tbaa !4
  %110 = icmp eq i32 %109, 0
  br i1 %110, label %118, label %111

111:                                              ; preds = %108, %104
  %112 = load i32, ptr %38, align 4, !tbaa !4
  %113 = and i32 %112, 2
  %114 = icmp ne i32 %113, 0
  br i1 %114, label %115, label %152

115:                                              ; preds = %111
  %116 = load i32, ptr %36, align 4, !tbaa !4
  %117 = icmp eq i32 %116, 2
  br i1 %117, label %118, label %152

118:                                              ; preds = %115, %108
  %119 = load ptr, ptr %39, align 8, !tbaa !33
  %120 = getelementptr inbounds nuw %struct.fft5d_plan_t, ptr %119, i32 0, i32 4
  %121 = load i32, ptr %36, align 4, !tbaa !4
  %122 = sext i32 %121 to i64
  %123 = getelementptr inbounds [3 x ptr], ptr %120, i64 0, i64 %122
  %124 = load ptr, ptr %123, align 8, !tbaa !44
  %125 = load i32, ptr %29, align 4, !tbaa !4
  %126 = sext i32 %125 to i64
  %127 = getelementptr inbounds ptr, ptr %124, i64 %126
  %128 = load i32, ptr %36, align 4, !tbaa !4
  %129 = sext i32 %128 to i64
  %130 = getelementptr inbounds [3 x i32], ptr %40, i64 0, i64 %129
  %131 = load i32, ptr %130, align 4, !tbaa !4
  %132 = load i32, ptr %30, align 4, !tbaa !4
  %133 = load i32, ptr %38, align 4, !tbaa !4
  %134 = and i32 %133, 16
  %135 = icmp ne i32 %134, 0
  %136 = select i1 %135, i32 1, i32 0
  %137 = invoke noundef i32 @_Z25gmx_fft_init_many_1d_realPP7gmx_fftiii(ptr noundef %127, i32 noundef %131, i32 noundef %132, i32 noundef %136)
          to label %138 unwind label %139

138:                                              ; preds = %118
  br label %173

139:                                              ; preds = %152, %118
  %140 = landingpad { ptr, i32 }
          catch ptr @_ZTISt9exception
          catch ptr null
  %141 = extractvalue { ptr, i32 } %140, 0
  store ptr %141, ptr %31, align 8
  %142 = extractvalue { ptr, i32 } %140, 1
  store i32 %142, ptr %32, align 4
  call void @llvm.lifetime.end.p0(i64 4, ptr %30) #14
  br label %143

143:                                              ; preds = %139
  %144 = load i32, ptr %32, align 4
  %145 = call i32 @llvm.eh.typeid.for.p0(ptr @_ZTISt9exception) #14
  %146 = icmp eq i32 %144, %145
  br i1 %146, label %147, label %190

147:                                              ; preds = %143
  call void @llvm.lifetime.start.p0(i64 8, ptr %33) #14
  %148 = load ptr, ptr %31, align 8
  %149 = call ptr @__cxa_begin_catch(ptr %148) #14
  store ptr %149, ptr %33, align 8
  %150 = load ptr, ptr %33, align 8, !tbaa !35
  invoke void @_ZN3gmx28processExceptionAsFatalErrorERKSt9exception(ptr noundef nonnull align 8 dereferenceable(8) %150) #19
          to label %151 unwind label %187

151:                                              ; preds = %147
  unreachable

152:                                              ; preds = %115, %111, %67
  %153 = load ptr, ptr %39, align 8, !tbaa !33
  %154 = getelementptr inbounds nuw %struct.fft5d_plan_t, ptr %153, i32 0, i32 4
  %155 = load i32, ptr %36, align 4, !tbaa !4
  %156 = sext i32 %155 to i64
  %157 = getelementptr inbounds [3 x ptr], ptr %154, i64 0, i64 %156
  %158 = load ptr, ptr %157, align 8, !tbaa !44
  %159 = load i32, ptr %29, align 4, !tbaa !4
  %160 = sext i32 %159 to i64
  %161 = getelementptr inbounds ptr, ptr %158, i64 %160
  %162 = load i32, ptr %36, align 4, !tbaa !4
  %163 = sext i32 %162 to i64
  %164 = getelementptr inbounds [3 x i32], ptr %41, i64 0, i64 %163
  %165 = load i32, ptr %164, align 4, !tbaa !4
  %166 = load i32, ptr %30, align 4, !tbaa !4
  %167 = load i32, ptr %38, align 4, !tbaa !4
  %168 = and i32 %167, 16
  %169 = icmp ne i32 %168, 0
  %170 = select i1 %169, i32 1, i32 0
  %171 = invoke noundef i32 @_Z20gmx_fft_init_many_1dPP7gmx_fftiii(ptr noundef %161, i32 noundef %165, i32 noundef %166, i32 noundef %170)
          to label %172 unwind label %139

172:                                              ; preds = %152
  br label %173

173:                                              ; preds = %172, %138
  call void @llvm.lifetime.end.p0(i64 4, ptr %30) #14
  br label %174

174:                                              ; preds = %173
  call void @__kmpc_end_ordered(ptr @1, i32 %72)
  br label %175

175:                                              ; preds = %174
  br label %176

176:                                              ; preds = %175
  %177 = load i32, ptr %21, align 4, !tbaa !4
  %178 = add nsw i32 %177, 1
  store i32 %178, ptr %21, align 4, !tbaa !4
  %179 = load ptr, ptr %11, align 8
  %180 = load i32, ptr %179, align 4, !tbaa !4
  call void @__kmpc_dispatch_fini_4(ptr @1, i32 %180)
  br label %62

181:                                              ; preds = %66
  br label %182

182:                                              ; preds = %181
  br label %54

183:                                              ; preds = %59
  %184 = load ptr, ptr %11, align 8
  %185 = load i32, ptr %184, align 4, !tbaa !4
  call void @__kmpc_dispatch_deinit(ptr @1, i32 %185)
  call void @llvm.lifetime.end.p0(i64 4, ptr %29) #14
  call void @llvm.lifetime.end.p0(i64 4, ptr %28) #14
  call void @llvm.lifetime.end.p0(i64 4, ptr %27) #14
  call void @llvm.lifetime.end.p0(i64 4, ptr %26) #14
  call void @llvm.lifetime.end.p0(i64 4, ptr %25) #14
  br label %186

186:                                              ; preds = %183, %10
  call void @llvm.lifetime.end.p0(i64 4, ptr %23) #14
  call void @llvm.lifetime.end.p0(i64 4, ptr %22) #14
  call void @llvm.lifetime.end.p0(i64 4, ptr %21) #14
  ret void

187:                                              ; preds = %147
  %188 = landingpad { ptr, i32 }
          catch ptr null
  %189 = extractvalue { ptr, i32 } %188, 0
  call void @__clang_call_terminate(ptr %189) #20
  unreachable

190:                                              ; preds = %143
  %191 = load ptr, ptr %31, align 8
  call void @__clang_call_terminate(ptr %191) #20
  unreachable
}