; Function Attrs: alwaysinline norecurse nounwind uwtable
define internal void @_Z13fft5d_plan_3diiiPP10tmpi_comm_iPP9t_complexS4_S4_S4_iN3gmx13PinningPolicyE.omp_outlined(ptr noalias noundef readonly captures(none) %0, ptr noalias readnone captures(none) %1, ptr noundef nonnull readonly align 4 captures(none) dereferenceable(4) %2, ptr noundef nonnull readonly align 4 captures(none) dereferenceable(12) %3, ptr noundef nonnull readonly align 4 captures(none) dereferenceable(4) %4, ptr noundef nonnull readonly align 4 captures(none) dereferenceable(12) %5, ptr noundef nonnull readonly align 4 captures(none) dereferenceable(4) %6, ptr noundef nonnull readonly align 8 captures(none) dereferenceable(8) %7, ptr noundef nonnull readonly align 4 captures(none) dereferenceable(12) %8, ptr noundef nonnull readonly align 4 captures(none) dereferenceable(12) %9) #12 personality ptr @__gxx_personality_v0 {
  %11 = alloca i32, align 4
  %12 = alloca i32, align 4
  %13 = alloca i32, align 4
  %14 = alloca i32, align 4
  %15 = load i32, ptr %2, align 4, !tbaa !4
  %16 = icmp sgt i32 %15, 0
  br i1 %16, label %17, label %79

17:                                               ; preds = %10
  %18 = add nsw i32 %15, -1
  call void @llvm.lifetime.start.p0(i64 4, ptr nonnull %11) #13
  store i32 0, ptr %11, align 4, !tbaa !4
  call void @llvm.lifetime.start.p0(i64 4, ptr nonnull %12) #13
  store i32 %18, ptr %12, align 4, !tbaa !4
  call void @llvm.lifetime.start.p0(i64 4, ptr nonnull %13) #13
  store i32 1, ptr %13, align 4, !tbaa !4
  call void @llvm.lifetime.start.p0(i64 4, ptr nonnull %14) #13
  store i32 0, ptr %14, align 4, !tbaa !4
  %19 = load i32, ptr %0, align 4, !tbaa !4
  tail call void @__kmpc_dispatch_init_4(ptr nonnull @1, i32 %19, i32 66, i32 0, i32 %18, i32 1, i32 1)
  %20 = call i32 @__kmpc_dispatch_next_4(ptr nonnull @1, i32 %19, ptr nonnull %14, ptr nonnull %11, ptr nonnull %12, ptr nonnull %13)
  %.not40 = icmp eq i32 %20, 0
  br i1 %.not40, label %._crit_edge, label %.lr.ph41

.loopexit:                                        ; preds = %76, %.lr.ph41
  %21 = call i32 @__kmpc_dispatch_next_4(ptr nonnull @1, i32 %19, ptr nonnull %14, ptr nonnull %11, ptr nonnull %12, ptr nonnull %13)
  %.not = icmp eq i32 %21, 0
  br i1 %.not, label %._crit_edge, label %.lr.ph41

.lr.ph41:                                         ; preds = %17, %.loopexit
  %22 = load i32, ptr %11, align 4, !tbaa !4
  %23 = load i32, ptr %12, align 4, !tbaa !4
  %.not2938 = icmp sgt i32 %22, %23
  br i1 %.not2938, label %.loopexit, label %.lr.ph.preheader

.lr.ph.preheader:                                 ; preds = %.lr.ph41
  %24 = sext i32 %22 to i64
  br label %.lr.ph

.lr.ph:                                           ; preds = %.lr.ph.preheader, %76
  %indvars.iv = phi i64 [ %24, %.lr.ph.preheader ], [ %indvars.iv.next, %76 ]
  call void @__kmpc_ordered(ptr nonnull @1, i32 %19)
  %indvars.iv.next = add nsw i64 %indvars.iv, 1
  %25 = load i32, ptr %4, align 4, !tbaa !4
  %26 = sext i32 %25 to i64
  %27 = getelementptr inbounds [3 x i32], ptr %3, i64 0, i64 %26
  %28 = load i32, ptr %27, align 4, !tbaa !4
  %29 = getelementptr inbounds [3 x i32], ptr %5, i64 0, i64 %26
  %30 = load i32, ptr %29, align 4, !tbaa !4
  %31 = mul i32 %30, %28
  %32 = trunc nsw i64 %indvars.iv.next to i32
  %33 = mul i32 %31, %32
  %34 = load i32, ptr %2, align 4, !tbaa !4
  %35 = sdiv i32 %33, %34
  %36 = trunc nsw i64 %indvars.iv to i32
  %37 = mul i32 %31, %36
  %38 = sdiv i32 %37, %34
  %39 = sub nsw i32 %35, %38
  %40 = load i32, ptr %6, align 4, !tbaa !4
  %41 = and i32 %40, 4
  %.not30 = icmp eq i32 %41, 0
  br i1 %.not30, label %66, label %42

42:                                               ; preds = %.lr.ph
  %43 = and i32 %40, 2
  %44 = or i32 %43, %25
  %or.cond = icmp eq i32 %44, 0
  br i1 %or.cond, label %47, label %45

45:                                               ; preds = %42
  %.not32 = icmp ne i32 %43, 0
  %46 = icmp eq i32 %25, 2
  %or.cond37 = and i1 %46, %.not32
  br i1 %or.cond37, label %47, label %66

47:                                               ; preds = %45, %42
  %48 = load ptr, ptr %7, align 8, !tbaa !23
  %49 = getelementptr inbounds nuw i8, ptr %48, i64 32
  %50 = getelementptr inbounds [3 x ptr], ptr %49, i64 0, i64 %26
  %51 = load ptr, ptr %50, align 8, !tbaa !33
  %52 = getelementptr inbounds ptr, ptr %51, i64 %indvars.iv
  %53 = getelementptr inbounds [3 x i32], ptr %8, i64 0, i64 %26
  %54 = load i32, ptr %53, align 4, !tbaa !4
  %55 = lshr i32 %40, 4
  %.lobit35 = and i32 %55, 1
  %56 = invoke noundef i32 @_Z25gmx_fft_init_many_1d_realPP7gmx_fftiii(ptr noundef %52, i32 noundef %54, i32 noundef %39, i32 noundef %.lobit35)
          to label %76 unwind label %57

57:                                               ; preds = %66, %47
  %58 = landingpad { ptr, i32 }
          catch ptr @_ZTISt9exception
          catch ptr null
  %59 = extractvalue { ptr, i32 } %58, 0
  %60 = extractvalue { ptr, i32 } %58, 1
  %61 = call i32 @llvm.eh.typeid.for.p0(ptr nonnull @_ZTISt9exception) #13
  %62 = icmp eq i32 %60, %61
  br i1 %62, label %63, label %83

63:                                               ; preds = %57
  %64 = call ptr @__cxa_begin_catch(ptr %59) #13
  invoke void @_ZN3gmx28processExceptionAsFatalErrorERKSt9exception(ptr noundef nonnull align 8 dereferenceable(8) %64) #21
          to label %65 unwind label %80

65:                                               ; preds = %63
  unreachable

66:                                               ; preds = %45, %.lr.ph
  %67 = load ptr, ptr %7, align 8, !tbaa !23
  %68 = getelementptr inbounds nuw i8, ptr %67, i64 32
  %69 = getelementptr inbounds [3 x ptr], ptr %68, i64 0, i64 %26
  %70 = load ptr, ptr %69, align 8, !tbaa !33
  %71 = getelementptr inbounds ptr, ptr %70, i64 %indvars.iv
  %72 = getelementptr inbounds [3 x i32], ptr %9, i64 0, i64 %26
  %73 = load i32, ptr %72, align 4, !tbaa !4
  %74 = lshr i32 %40, 4
  %.lobit = and i32 %74, 1
  %75 = invoke noundef i32 @_Z20gmx_fft_init_many_1dPP7gmx_fftiii(ptr noundef %71, i32 noundef %73, i32 noundef %39, i32 noundef %.lobit)
          to label %76 unwind label %57

76:                                               ; preds = %66, %47
  call void @__kmpc_end_ordered(ptr nonnull @1, i32 %19)
  call void @__kmpc_dispatch_fini_4(ptr nonnull @1, i32 %19)
  %77 = load i32, ptr %12, align 4, !tbaa !4
  %78 = sext i32 %77 to i64
  %.not29.not = icmp slt i64 %indvars.iv, %78
  br i1 %.not29.not, label %.lr.ph, label %.loopexit

._crit_edge:                                      ; preds = %.loopexit, %17
  call void @__kmpc_dispatch_deinit(ptr nonnull @1, i32 %19)
  call void @llvm.lifetime.end.p0(i64 4, ptr nonnull %14) #13
  call void @llvm.lifetime.end.p0(i64 4, ptr nonnull %13) #13
  call void @llvm.lifetime.end.p0(i64 4, ptr nonnull %12) #13
  call void @llvm.lifetime.end.p0(i64 4, ptr nonnull %11) #13
  br label %79

79:                                               ; preds = %._crit_edge, %10
  ret void

80:                                               ; preds = %63
  %81 = landingpad { ptr, i32 }
          catch ptr null
  %82 = extractvalue { ptr, i32 } %81, 0
  call void @__clang_call_terminate(ptr %82) #22
  unreachable

83:                                               ; preds = %57
  call void @__clang_call_terminate(ptr %59) #22
  unreachable
}